target datalayout = "e-m:e-p270:32:32-p271:32:32-p272:64:64-i64:64-i128:128-f80:128-n8:16:32:64-S128"
target triple = "x86_64-unknown-linux-gnu"

%struct.gpr_timespec = type { i64, i32, i32 }
%struct.grpc_jwt_claims = type { ptr, ptr, ptr, ptr, %struct.gpr_timespec, %struct.gpr_timespec, %struct.gpr_timespec, %"class.grpc_core::ManualConstructor" }
%"class.grpc_core::ManualConstructor" = type { [56 x i8] }

; Function Attrs: mustprogress nounwind uwtable
define noundef ptr @_Z18grpc_jwt_claims_idPK15grpc_jwt_claims(ptr noundef %claims) #4 {
entry:
  %retval = alloca ptr, align 8
  %claims.addr = alloca ptr, align 8
  store ptr %claims, ptr %claims.addr, align 8
  %0 = load ptr, ptr %claims.addr, align 8
  %cmp = icmp eq ptr %0, null
  br i1 %cmp, label %if.then, label %if.end

if.then:                                          ; preds = %entry
  store ptr null, ptr %retval, align 8
  br label %return

if.end:                                           ; preds = %entry
  %1 = load ptr, ptr %claims.addr, align 8
  %jti = getelementptr inbounds %struct.grpc_jwt_claims, ptr %1, i32 0, i32 3
  %2 = load ptr, ptr %jti, align 8
  store ptr %2, ptr %retval, align 8
  br label %return

return:                                           ; preds = %if.end, %if.then
  %3 = load ptr, ptr %retval, align 8
  ret ptr %3
}